target datalayout = "e-m:e-p270:32:32-p271:32:32-p272:64:64-i64:64-i128:128-f80:128-n8:16:32:64-S128"
target triple = "x86_64-pc-linux-gnu"

; Function Attrs: nounwind uwtable
define internal i32 @Read255UShort(ptr noundef %0, ptr noundef %1) #0 {
  %3 = alloca i32, align 4
  %4 = alloca ptr, align 8
  %5 = alloca ptr, align 8
  %6 = alloca i8, align 1
  %7 = alloca i8, align 1
  %8 = alloca i8, align 1
  %9 = alloca i16, align 2
  %10 = alloca i32, align 4
  %11 = alloca i8, align 1
  %12 = alloca i8, align 1
  %13 = alloca i16, align 2
  store ptr %0, ptr %4, align 8
  store ptr %1, ptr %5, align 8
  store i8 -1, ptr %6, align 1
  store i8 -2, ptr %7, align 1
  store i8 -3, ptr %8, align 1
  store i16 253, ptr %9, align 2
  store i32 0, ptr %10, align 4
  store i8 0, ptr %12, align 1
  store i16 0, ptr %13, align 2
  %14 = load ptr, ptr %4, align 8
  %15 = call zeroext i8 @FT_Stream_ReadByte(ptr noundef %14, ptr noundef %10)
  store i8 %15, ptr %11, align 1
  %16 = load i32, ptr %10, align 4
  %17 = icmp ne i32 %16, 0
  br i1 %17, label %18, label %20

18:                                               ; preds = %2
  %19 = load i32, ptr %10, align 4
  store i32 %19, ptr %3, align 4
  br label %72

20:                                               ; preds = %2
  %21 = load i8, ptr %11, align 1
  %22 = zext i8 %21 to i32
  %23 = icmp eq i32 %22, 253
  br i1 %23, label %24, label %34

24:                                               ; preds = %20
  %25 = load ptr, ptr %4, align 8
  %26 = call zeroext i16 @FT_Stream_ReadUShort(ptr noundef %25, ptr noundef %10)
  store i16 %26, ptr %13, align 2
  %27 = load i32, ptr %10, align 4
  %28 = icmp ne i32 %27, 0
  br i1 %28, label %29, label %31

29:                                               ; preds = %24
  %30 = load i32, ptr %10, align 4
  store i32 %30, ptr %3, align 4
  br label %72

31:                                               ; preds = %24
  %32 = load i16, ptr %13, align 2
  %33 = load ptr, ptr %5, align 8
  store i16 %32, ptr %33, align 2
  store i32 0, ptr %3, align 4
  br label %72

34:                                               ; preds = %20
  %35 = load i8, ptr %11, align 1
  %36 = zext i8 %35 to i32
  %37 = icmp eq i32 %36, 255
  br i1 %37, label %38, label %51

38:                                               ; preds = %34
  %39 = load ptr, ptr %4, align 8
  %40 = call zeroext i8 @FT_Stream_ReadByte(ptr noundef %39, ptr noundef %10)
  store i8 %40, ptr %12, align 1
  %41 = load i32, ptr %10, align 4
  %42 = icmp ne i32 %41, 0
  br i1 %42, label %43, label %45

43:                                               ; preds = %38
  %44 = load i32, ptr %10, align 4
  store i32 %44, ptr %3, align 4
  br label %72

45:                                               ; preds = %38
  %46 = load i8, ptr %12, align 1
  %47 = zext i8 %46 to i32
  %48 = add nsw i32 %47, 253
  %49 = trunc i32 %48 to i16
  %50 = load ptr, ptr %5, align 8
  store i16 %49, ptr %50, align 2
  store i32 0, ptr %3, align 4
  br label %72

51:                                               ; preds = %34
  %52 = load i8, ptr %11, align 1
  %53 = zext i8 %52 to i32
  %54 = icmp eq i32 %53, 254
  br i1 %54, label %55, label %68

55:                                               ; preds = %51
  %56 = load ptr, ptr %4, align 8
  %57 = call zeroext i8 @FT_Stream_ReadByte(ptr noundef %56, ptr noundef %10)
  store i8 %57, ptr %12, align 1
  %58 = load i32, ptr %10, align 4
  %59 = icmp ne i32 %58, 0
  br i1 %59, label %60, label %62

60:                                               ; preds = %55
  %61 = load i32, ptr %10, align 4
  store i32 %61, ptr %3, align 4
  br label %72

62:                                               ; preds = %55
  %63 = load i8, ptr %12, align 1
  %64 = zext i8 %63 to i32
  %65 = add nsw i32 %64, 506
  %66 = trunc i32 %65 to i16
  %67 = load ptr, ptr %5, align 8
  store i16 %66, ptr %67, align 2
  store i32 0, ptr %3, align 4
  br label %72

68:                                               ; preds = %51
  %69 = load i8, ptr %11, align 1
  %70 = zext i8 %69 to i16
  %71 = load ptr, ptr %5, align 8
  store i16 %70, ptr %71, align 2
  store i32 0, ptr %3, align 4
  br label %72

72:                                               ; preds = %68, %62, %60, %45, %43, %31, %29, %18
  %73 = load i32, ptr %3, align 4
  ret i32 %73
}