; Function Attrs: nounwind uwtable
define internal fastcc i32 @Read255UShort(ptr noundef %0, ptr nocapture noundef writeonly %1) unnamed_addr #0 {
  %3 = alloca i32, align 4
  store i32 0, ptr %3, align 4
  %4 = call zeroext i8 @FT_Stream_ReadByte(ptr noundef %0, ptr noundef nonnull %3) #26
  %5 = load i32, ptr %3, align 4
  %.not = icmp eq i32 %5, 0
  br i1 %.not, label %6, label %24

6:                                                ; preds = %2
  switch i8 %4, label %22 [
    i8 -3, label %7
    i8 -1, label %10
    i8 -2, label %16
  ]

7:                                                ; preds = %6
  %8 = call zeroext i16 @FT_Stream_ReadUShort(ptr noundef %0, ptr noundef nonnull %3) #26
  %9 = load i32, ptr %3, align 4
  %.not22 = icmp eq i32 %9, 0
  br i1 %.not22, label %.sink.split, label %24

10:                                               ; preds = %6
  %11 = call zeroext i8 @FT_Stream_ReadByte(ptr noundef %0, ptr noundef nonnull %3) #26
  %12 = load i32, ptr %3, align 4
  %.not21 = icmp eq i32 %12, 0
  br i1 %.not21, label %13, label %24

13:                                               ; preds = %10
  %14 = zext i8 %11 to i16
  %15 = add nuw nsw i16 %14, 253
  br label %.sink.split

16:                                               ; preds = %6
  %17 = call zeroext i8 @FT_Stream_ReadByte(ptr noundef %0, ptr noundef nonnull %3) #26
  %18 = load i32, ptr %3, align 4
  %.not20 = icmp eq i32 %18, 0
  br i1 %.not20, label %19, label %24

19:                                               ; preds = %16
  %20 = zext i8 %17 to i16
  %21 = add nuw nsw i16 %20, 506
  br label %.sink.split

22:                                               ; preds = %6
  %23 = zext i8 %4 to i16
  br label %.sink.split

.sink.split:                                      ; preds = %7, %13, %19, %22
  %.sink = phi i16 [ %23, %22 ], [ %21, %19 ], [ %15, %13 ], [ %8, %7 ]
  store i16 %.sink, ptr %1, align 2
  br label %24

24:                                               ; preds = %.sink.split, %16, %10, %7, %2
  %.0 = phi i32 [ %5, %2 ], [ %9, %7 ], [ %12, %10 ], [ %18, %16 ], [ 0, %.sink.split ]
  ret i32 %.0
}